; ModuleID = '50/2151.c'
source_filename = "50/2151.c"
target datalayout = "e-m:e-p270:32:32-p271:32:32-p272:64:64-i64:64-f80:128-n8:16:32:64-S128"
target triple = "x86_64-pc-linux-gnu"

@__const.main.a = private unnamed_addr constant [12 x i32] [i32 31, i32 28, i32 31, i32 30, i32 31, i32 30, i32 31, i32 31, i32 30, i32 31, i32 30, i32 31], align 16
@.str = private unnamed_addr constant [3 x i8] c"%d\00", align 1
@.str.1 = private unnamed_addr constant [3 x i8] c"1\0A\00", align 1
@.str.2 = private unnamed_addr constant [4 x i8] c"%d\0A\00", align 1

; Function Attrs: noinline nounwind uwtable
define dso_local i32 @main() #0 {
  %1 = alloca i32, align 4
  %2 = alloca [12 x i32], align 16
  %3 = alloca i32, align 4
  %4 = alloca i32, align 4
  %5 = alloca i32, align 4
  %6 = alloca i32, align 4
  store i32 0, i32* %1, align 4
  %7 = bitcast [12 x i32]* %2 to i8*
  call void @llvm.memcpy.p0i8.p0i8.i64(i8* align 16 %7, i8* align 16 bitcast ([12 x i32]* @__const.main.a to i8*), i64 48, i1 false)
  %8 = call i32 (i8*, ...) @__isoc99_scanf(i8* getelementptr inbounds ([3 x i8], [3 x i8]* @.str, i64 0, i64 0), i32* %3)
  store i32 12, i32* %5, align 4
  %9 = load i32, i32* %3, align 4
  %10 = load i32, i32* %5, align 4
  %11 = add nsw i32 %9, %10
  %12 = srem i32 %11, 7
  %13 = icmp eq i32 %12, 5
  br i1 %13, label %14, label %16

14:                                               ; preds = %0
  %15 = call i32 (i8*, ...) @printf(i8* getelementptr inbounds ([3 x i8], [3 x i8]* @.str.1, i64 0, i64 0))
  br label %16

16:                                               ; preds = %14, %0
  store i32 1, i32* %4, align 4
  br label %17

17:                                               ; preds = %38, %16
  %18 = load i32, i32* %4, align 4
  %19 = icmp slt i32 %18, 12
  br i1 %19, label %20, label %41

20:                                               ; preds = %17
  %21 = load i32, i32* %5, align 4
  %22 = load i32, i32* %4, align 4
  %23 = sub nsw i32 %22, 1
  %24 = sext i32 %23 to i64
  %25 = getelementptr inbounds [12 x i32], [12 x i32]* %2, i64 0, i64 %24
  %26 = load i32, i32* %25, align 4
  %27 = add nsw i32 %21, %26
  store i32 %27, i32* %5, align 4
  %28 = load i32, i32* %3, align 4
  %29 = load i32, i32* %5, align 4
  %30 = add nsw i32 %28, %29
  %31 = srem i32 %30, 7
  %32 = icmp eq i32 %31, 5
  br i1 %32, label %33, label %37

33:                                               ; preds = %20
  %34 = load i32, i32* %4, align 4
  %35 = add nsw i32 %34, 1
  %36 = call i32 (i8*, ...) @printf(i8* getelementptr inbounds ([4 x i8], [4 x i8]* @.str.2, i64 0, i64 0), i32 %35)
  br label %37

37:                                               ; preds = %33, %20
  br label %38

38:                                               ; preds = %37
  %39 = load i32, i32* %4, align 4
  %40 = add nsw i32 %39, 1
  store i32 %40, i32* %4, align 4
  br label %17

41:                                               ; preds = %17
  ret i32 0
}

; Function Attrs: argmemonly nounwind willreturn
declare void @llvm.memcpy.p0i8.p0i8.i64(i8* noalias nocapture writeonly, i8* noalias nocapture readonly, i64, i1 immarg) #1

declare dso_local i32 @__isoc99_scanf(i8*, ...) #2

declare dso_local i32 @printf(i8*, ...) #2


!llvm.module.flags = !{!0}
!llvm.ident = !{!1}

!0 = !{i32 1, !"wchar_size", i32 4}
!1 = !{!"clang version 10.0.0-4ubuntu1 "}
